; Function Attrs: nounwind uwtable
define range(i32 0, 2) i32 @Cudd_DisableReorderingReporting(ptr noundef captures(none) %0) local_unnamed_addr #0 {
  %2 = getelementptr inbounds nuw i8, ptr %0, i64 592
  %.019.i = load ptr, ptr %2, align 8
  %.not20.i = icmp eq ptr %.019.i, null
  br i1 %.not20.i, label %Cudd_RemoveHook.exit.thread, label %.lr.ph.i.preheader

.lr.ph.i.preheader:                               ; preds = %1
  %3 = load ptr, ptr %.019.i, align 8
  %4 = icmp eq ptr %3, @Cudd_StdPreReordHook
  br i1 %4, label %.lr.ph.i._crit_edge, label %.lr.ph

.lr.ph.i:                                         ; preds = %.lr.ph
  %5 = load ptr, ptr %.0.i, align 8
  %6 = icmp eq ptr %5, @Cudd_StdPreReordHook
  br i1 %6, label %.lr.ph.i._crit_edge.loopexit, label %.lr.ph, !llvm.loop !31

.lr.ph:                                           ; preds = %.lr.ph.i.preheader, %.lr.ph.i
  %.022.i21 = phi ptr [ %.0.i, %.lr.ph.i ], [ %.019.i, %.lr.ph.i.preheader ]
  %7 = getelementptr inbounds nuw i8, ptr %.022.i21, i64 8
  %.0.i = load ptr, ptr %7, align 8
  %.not.i = icmp eq ptr %.0.i, null
  br i1 %.not.i, label %Cudd_RemoveHook.exit.thread, label %.lr.ph.i, !llvm.loop !31

.lr.ph.i._crit_edge.loopexit:                     ; preds = %.lr.ph.i
  %8 = getelementptr inbounds nuw i8, ptr %.022.i21, i64 8
  br label %.lr.ph.i._crit_edge

.lr.ph.i._crit_edge:                              ; preds = %.lr.ph.i._crit_edge.loopexit, %.lr.ph.i.preheader
  %.022.i.lcssa = phi ptr [ %.019.i, %.lr.ph.i.preheader ], [ %.0.i, %.lr.ph.i._crit_edge.loopexit ]
  %.121.i.lcssa = phi ptr [ %2, %.lr.ph.i.preheader ], [ %8, %.lr.ph.i._crit_edge.loopexit ]
  %9 = getelementptr inbounds nuw i8, ptr %.022.i.lcssa, i64 8
  %10 = load ptr, ptr %9, align 8
  store ptr %10, ptr %.121.i.lcssa, align 8
  tail call void @free(ptr noundef nonnull %.022.i.lcssa) #20
  %11 = getelementptr inbounds nuw i8, ptr %0, i64 600
  %.019.i3 = load ptr, ptr %11, align 8
  %.not20.i4 = icmp eq ptr %.019.i3, null
  br i1 %.not20.i4, label %Cudd_RemoveHook.exit.thread, label %.lr.ph.i5.preheader

.lr.ph.i5.preheader:                              ; preds = %.lr.ph.i._crit_edge
  %12 = load ptr, ptr %.019.i3, align 8
  %13 = icmp eq ptr %12, @Cudd_StdPostReordHook
  br i1 %13, label %Cudd_RemoveHook.exit11, label %.lr.ph24

.lr.ph.i5:                                        ; preds = %.lr.ph24
  %14 = load ptr, ptr %.0.i8, align 8
  %15 = icmp eq ptr %14, @Cudd_StdPostReordHook
  br i1 %15, label %Cudd_RemoveHook.exit11.loopexit, label %.lr.ph24, !llvm.loop !31

.lr.ph24:                                         ; preds = %.lr.ph.i5.preheader, %.lr.ph.i5
  %.022.i623 = phi ptr [ %.0.i8, %.lr.ph.i5 ], [ %.019.i3, %.lr.ph.i5.preheader ]
  %16 = getelementptr inbounds nuw i8, ptr %.022.i623, i64 8
  %.0.i8 = load ptr, ptr %16, align 8
  %.not.i9 = icmp eq ptr %.0.i8, null
  br i1 %.not.i9, label %Cudd_RemoveHook.exit.thread, label %.lr.ph.i5, !llvm.loop !31

Cudd_RemoveHook.exit11.loopexit:                  ; preds = %.lr.ph.i5
  %17 = getelementptr inbounds nuw i8, ptr %.022.i623, i64 8
  br label %Cudd_RemoveHook.exit11

Cudd_RemoveHook.exit11:                           ; preds = %Cudd_RemoveHook.exit11.loopexit, %.lr.ph.i5.preheader
  %.022.i6.lcssa = phi ptr [ %.019.i3, %.lr.ph.i5.preheader ], [ %.0.i8, %Cudd_RemoveHook.exit11.loopexit ]
  %.121.i7.lcssa = phi ptr [ %11, %.lr.ph.i5.preheader ], [ %17, %Cudd_RemoveHook.exit11.loopexit ]
  %18 = getelementptr inbounds nuw i8, ptr %.022.i6.lcssa, i64 8
  %19 = load ptr, ptr %18, align 8
  store ptr %19, ptr %.121.i7.lcssa, align 8
  tail call void @free(ptr noundef nonnull %.022.i6.lcssa) #20
  br label %Cudd_RemoveHook.exit.thread

Cudd_RemoveHook.exit.thread:                      ; preds = %.lr.ph, %.lr.ph24, %1, %Cudd_RemoveHook.exit11, %.lr.ph.i._crit_edge
  %.0 = phi i32 [ 1, %Cudd_RemoveHook.exit11 ], [ 0, %.lr.ph.i._crit_edge ], [ 0, %1 ], [ 0, %.lr.ph24 ], [ 0, %.lr.ph ]
  ret i32 %.0
}